; Function Attrs: mustprogress nofree norecurse nosync nounwind willreturn memory(argmem: read) uwtable
define dso_local { double, double } @_ZNK7msdfgen13LinearSegment9directionEd(ptr nocapture noundef nonnull readonly align 8 dereferenceable(48) %this, double %param) unnamed_addr #7 align 2 {
entry:
  %p = getelementptr inbounds i8, ptr %this, i64 16
  %arrayidx = getelementptr inbounds i8, ptr %this, i64 32
  %0 = load <2 x double>, ptr %arrayidx, align 8
  %1 = load <2 x double>, ptr %p, align 8
  %2 = fsub <2 x double> %0, %1
  %3 = extractelement <2 x double> %2, i64 0
  %.fca.0.insert.i = insertvalue { double, double } poison, double %3, 0
  %4 = extractelement <2 x double> %2, i64 1
  %.fca.1.insert.i = insertvalue { double, double } %.fca.0.insert.i, double %4, 1
  ret { double, double } %.fca.1.insert.i
}